; Function Attrs: nounwind uwtable
define ptr @l_Lake_ELog_alternative___rarg___lambda__1(ptr noundef %0, ptr noundef %1, ptr noundef %2, ptr noundef %3, ptr readnone captures(none) %4) #1 {
  %6 = getelementptr inbounds nuw i8, ptr %0, i64 16
  %7 = load ptr, ptr %6, align 8, !tbaa !10
  %8 = ptrtoint ptr %7 to i64
  %9 = and i64 %8, 1
  %.not = icmp eq i64 %9, 0
  br i1 %.not, label %10, label %lean_inc.exit26

10:                                               ; preds = %5
  %.val.i = load i32, ptr %7, align 4, !tbaa !4
  %11 = icmp sgt i32 %.val.i, 0
  br i1 %11, label %12, label %14, !prof !9

12:                                               ; preds = %10
  %13 = add nuw i32 %.val.i, 1
  store i32 %13, ptr %7, align 4, !tbaa !4
  br label %lean_inc.exit26

14:                                               ; preds = %10
  %.not.i33 = icmp eq i32 %.val.i, 0
  br i1 %.not.i33, label %lean_inc.exit26, label %15

15:                                               ; preds = %14
  tail call void @lean_inc_ref_cold(ptr noundef nonnull %7) #9
  br label %lean_inc.exit26

lean_inc.exit26:                                  ; preds = %15, %14, %12, %5
  %16 = ptrtoint ptr %0 to i64
  %17 = and i64 %16, 1
  %.not43 = icmp eq i64 %17, 0
  br i1 %.not43, label %18, label %lean_dec.exit23

18:                                               ; preds = %lean_inc.exit26
  %19 = load i32, ptr %0, align 4, !tbaa !4
  %20 = icmp sgt i32 %19, 1
  br i1 %20, label %21, label %23, !prof !9

21:                                               ; preds = %18
  %22 = add nsw i32 %19, -1
  store i32 %22, ptr %0, align 4, !tbaa !4
  br label %lean_dec.exit23

23:                                               ; preds = %18
  %.not.i = icmp eq i32 %19, 0
  br i1 %.not.i, label %lean_dec.exit23, label %24

24:                                               ; preds = %23
  tail call void @lean_dec_ref_cold(ptr noundef nonnull %0) #9
  br label %lean_dec.exit23

lean_dec.exit23:                                  ; preds = %24, %23, %21, %lean_inc.exit26
  %25 = getelementptr inbounds nuw i8, ptr %1, i64 8
  %26 = load ptr, ptr %25, align 8, !tbaa !10
  %27 = ptrtoint ptr %26 to i64
  %28 = and i64 %27, 1
  %.not44 = icmp eq i64 %28, 0
  br i1 %.not44, label %29, label %lean_inc.exit25

29:                                               ; preds = %lean_dec.exit23
  %.val.i34 = load i32, ptr %26, align 4, !tbaa !4
  %30 = icmp sgt i32 %.val.i34, 0
  br i1 %30, label %31, label %33, !prof !9

31:                                               ; preds = %29
  %32 = add nuw i32 %.val.i34, 1
  store i32 %32, ptr %26, align 4, !tbaa !4
  br label %lean_inc.exit25

33:                                               ; preds = %29
  %.not.i35 = icmp eq i32 %.val.i34, 0
  br i1 %.not.i35, label %lean_inc.exit25, label %34

34:                                               ; preds = %33
  tail call void @lean_inc_ref_cold(ptr noundef nonnull %26) #9
  br label %lean_inc.exit25

lean_inc.exit25:                                  ; preds = %34, %33, %31, %lean_dec.exit23
  %35 = ptrtoint ptr %1 to i64
  %36 = and i64 %35, 1
  %.not45 = icmp eq i64 %36, 0
  br i1 %.not45, label %37, label %lean_dec.exit22

37:                                               ; preds = %lean_inc.exit25
  %38 = load i32, ptr %1, align 4, !tbaa !4
  %39 = icmp sgt i32 %38, 1
  br i1 %39, label %40, label %42, !prof !9

40:                                               ; preds = %37
  %41 = add nsw i32 %38, -1
  store i32 %41, ptr %1, align 4, !tbaa !4
  br label %lean_dec.exit22

42:                                               ; preds = %37
  %.not.i27 = icmp eq i32 %38, 0
  br i1 %.not.i27, label %lean_dec.exit22, label %43

43:                                               ; preds = %42
  tail call void @lean_dec_ref_cold(ptr noundef nonnull %1) #9
  br label %lean_dec.exit22

lean_dec.exit22:                                  ; preds = %43, %42, %40, %lean_inc.exit25
  %44 = getelementptr inbounds nuw i8, ptr %26, i64 8
  %45 = load ptr, ptr %44, align 8, !tbaa !10
  %46 = ptrtoint ptr %45 to i64
  %47 = and i64 %46, 1
  %.not46 = icmp eq i64 %47, 0
  br i1 %.not46, label %48, label %lean_inc.exit24

48:                                               ; preds = %lean_dec.exit22
  %.val.i37 = load i32, ptr %45, align 4, !tbaa !4
  %49 = icmp sgt i32 %.val.i37, 0
  br i1 %49, label %50, label %52, !prof !9

50:                                               ; preds = %48
  %51 = add nuw i32 %.val.i37, 1
  store i32 %51, ptr %45, align 4, !tbaa !4
  br label %lean_inc.exit24

52:                                               ; preds = %48
  %.not.i38 = icmp eq i32 %.val.i37, 0
  br i1 %.not.i38, label %lean_inc.exit24, label %53

53:                                               ; preds = %52
  tail call void @lean_inc_ref_cold(ptr noundef nonnull %45) #9
  br label %lean_inc.exit24

lean_inc.exit24:                                  ; preds = %53, %52, %50, %lean_dec.exit22
  br i1 %.not44, label %54, label %lean_dec.exit21

54:                                               ; preds = %lean_inc.exit24
  %55 = load i32, ptr %26, align 4, !tbaa !4
  %56 = icmp sgt i32 %55, 1
  br i1 %56, label %57, label %59, !prof !9

57:                                               ; preds = %54
  %58 = add nsw i32 %55, -1
  store i32 %58, ptr %26, align 4, !tbaa !4
  br label %lean_dec.exit21

59:                                               ; preds = %54
  %.not.i29 = icmp eq i32 %55, 0
  br i1 %.not.i29, label %lean_dec.exit21, label %60

60:                                               ; preds = %59
  tail call void @lean_dec_ref_cold(ptr noundef nonnull %26) #9
  br label %lean_dec.exit21

lean_dec.exit21:                                  ; preds = %60, %59, %57, %lean_inc.exit24
  %61 = getelementptr inbounds nuw i8, ptr %2, i64 8
  %62 = load ptr, ptr %61, align 8, !tbaa !10
  %63 = ptrtoint ptr %62 to i64
  %64 = and i64 %63, 1
  %.not47 = icmp eq i64 %64, 0
  br i1 %.not47, label %65, label %lean_inc.exit

65:                                               ; preds = %lean_dec.exit21
  %.val.i40 = load i32, ptr %62, align 4, !tbaa !4
  %66 = icmp sgt i32 %.val.i40, 0
  br i1 %66, label %67, label %69, !prof !9

67:                                               ; preds = %65
  %68 = add nuw i32 %.val.i40, 1
  store i32 %68, ptr %62, align 4, !tbaa !4
  br label %lean_inc.exit

69:                                               ; preds = %65
  %.not.i41 = icmp eq i32 %.val.i40, 0
  br i1 %.not.i41, label %lean_inc.exit, label %70

70:                                               ; preds = %69
  tail call void @lean_inc_ref_cold(ptr noundef nonnull %62) #9
  br label %lean_inc.exit

lean_inc.exit:                                    ; preds = %70, %69, %67, %lean_dec.exit21
  %71 = ptrtoint ptr %2 to i64
  %72 = and i64 %71, 1
  %.not48 = icmp eq i64 %72, 0
  br i1 %.not48, label %73, label %lean_dec.exit

73:                                               ; preds = %lean_inc.exit
  %74 = load i32, ptr %2, align 4, !tbaa !4
  %75 = icmp sgt i32 %74, 1
  br i1 %75, label %76, label %78, !prof !9

76:                                               ; preds = %73
  %77 = add nsw i32 %74, -1
  store i32 %77, ptr %2, align 4, !tbaa !4
  br label %lean_dec.exit

78:                                               ; preds = %73
  %.not.i31 = icmp eq i32 %74, 0
  br i1 %.not.i31, label %lean_dec.exit, label %79

79:                                               ; preds = %78
  tail call void @lean_dec_ref_cold(ptr noundef nonnull %2) #9
  br label %lean_dec.exit

lean_dec.exit:                                    ; preds = %79, %78, %76, %lean_inc.exit
  %80 = load ptr, ptr @l_Lake_getLogPos___rarg___closed__1, align 8, !tbaa !10
  %81 = tail call ptr @lean_apply_4(ptr noundef %45, ptr noundef nonnull inttoptr (i64 1 to ptr), ptr noundef nonnull inttoptr (i64 1 to ptr), ptr noundef %80, ptr noundef %62) #9
  tail call void @lean_inc_heartbeat() #9
  %82 = tail call noalias ptr @mi_malloc_small(i64 noundef 32) #9
  %83 = icmp eq ptr %82, null
  br i1 %83, label %84, label %lean_alloc_closure.exit

84:                                               ; preds = %lean_dec.exit
  tail call void @lean_internal_panic_out_of_memory() #10
  unreachable

lean_alloc_closure.exit:                          ; preds = %lean_dec.exit
  %85 = getelementptr inbounds nuw i8, ptr %82, i64 4
  store i32 1, ptr %82, align 4, !tbaa !4
  store i32 -184549344, ptr %85, align 4
  %86 = getelementptr inbounds nuw i8, ptr %82, i64 8
  store ptr @l_Lake_ELog_failure___rarg___lambda__1, ptr %86, align 8, !tbaa !10
  %87 = getelementptr inbounds nuw i8, ptr %82, i64 16
  store i16 2, ptr %87, align 8, !tbaa !12
  %88 = getelementptr inbounds nuw i8, ptr %82, i64 18
  store i16 1, ptr %88, align 2, !tbaa !12
  %89 = getelementptr inbounds nuw i8, ptr %82, i64 24
  store ptr %3, ptr %89, align 8, !tbaa !10
  %90 = tail call ptr @lean_apply_4(ptr noundef %7, ptr noundef nonnull inttoptr (i64 1 to ptr), ptr noundef nonnull inttoptr (i64 1 to ptr), ptr noundef %81, ptr noundef nonnull %82) #9
  ret ptr %90
}